target datalayout = "e-m:e-p270:32:32-p271:32:32-p272:64:64-i64:64-i128:128-f80:128-n8:16:32:64-S128"
target triple = "x86_64-pc-linux-gnu"

%"class.google::protobuf::StringPiece" = type { ptr, i64 }

; Function Attrs: inlinehint mustprogress nounwind uwtable
define linkonce_odr void @_ZN9__gnu_cxx5__ops20__iter_equal_to_iterEv() #5 comdat {
  ret void
}

; Function Attrs: inlinehint mustprogress uwtable
define linkonce_odr noundef ptr @_ZSt6searchIPKcS1_ET_S2_S2_T0_S3_(ptr noundef %0, ptr noundef %1, ptr noundef %2, ptr noundef %3) #7 comdat {
  %5 = alloca ptr, align 8
  %6 = alloca ptr, align 8
  %7 = alloca ptr, align 8
  %8 = alloca ptr, align 8
  store ptr %0, ptr %5, align 8, !tbaa !16
  store ptr %1, ptr %6, align 8, !tbaa !16
  store ptr %2, ptr %7, align 8, !tbaa !16
  store ptr %3, ptr %8, align 8, !tbaa !16
  %9 = load ptr, ptr %5, align 8, !tbaa !16
  %10 = load ptr, ptr %6, align 8, !tbaa !16
  %11 = load ptr, ptr %7, align 8, !tbaa !16
  %12 = load ptr, ptr %8, align 8, !tbaa !16
  call void @_ZN9__gnu_cxx5__ops20__iter_equal_to_iterEv()
  %13 = call noundef ptr @_ZSt8__searchIPKcS1_N9__gnu_cxx5__ops19_Iter_equal_to_iterEET_S5_S5_T0_S6_T1_(ptr noundef %9, ptr noundef %10, ptr noundef %11, ptr noundef %12)
  ret ptr %13
}

; Function Attrs: mustprogress uwtable
define noundef i64 @_ZNK6google8protobuf11StringPiece4findES1_m(ptr noundef nonnull align 8 dereferenceable(16) %0, ptr %1, i64 %2, i64 noundef %3) #0 align 2 {
  %5 = alloca i64, align 8
  %6 = alloca %"class.google::protobuf::StringPiece", align 8
  %7 = alloca ptr, align 8
  %8 = alloca i64, align 8
  %9 = alloca ptr, align 8
  %10 = getelementptr inbounds nuw { ptr, i64 }, ptr %6, i32 0, i32 0
  store ptr %1, ptr %10, align 8
  %11 = getelementptr inbounds nuw { ptr, i64 }, ptr %6, i32 0, i32 1
  store i64 %2, ptr %11, align 8
  store ptr %0, ptr %7, align 8, !tbaa !8
  store i64 %3, ptr %8, align 8, !tbaa !15
  %12 = load ptr, ptr %7, align 8
  %13 = getelementptr inbounds nuw %"class.google::protobuf::StringPiece", ptr %12, i32 0, i32 1
  %14 = load i64, ptr %13, align 8, !tbaa !14
  %15 = icmp sle i64 %14, 0
  br i1 %15, label %21, label %16

16:                                               ; preds = %4
  %17 = load i64, ptr %8, align 8, !tbaa !15
  %18 = getelementptr inbounds nuw %"class.google::protobuf::StringPiece", ptr %12, i32 0, i32 1
  %19 = load i64, ptr %18, align 8, !tbaa !14
  %20 = icmp ugt i64 %17, %19
  br i1 %20, label %21, label %34

21:                                               ; preds = %16, %4
  %22 = getelementptr inbounds nuw %"class.google::protobuf::StringPiece", ptr %12, i32 0, i32 1
  %23 = load i64, ptr %22, align 8, !tbaa !14
  %24 = icmp eq i64 %23, 0
  br i1 %24, label %25, label %33

25:                                               ; preds = %21
  %26 = load i64, ptr %8, align 8, !tbaa !15
  %27 = icmp eq i64 %26, 0
  br i1 %27, label %28, label %33

28:                                               ; preds = %25
  %29 = getelementptr inbounds nuw %"class.google::protobuf::StringPiece", ptr %6, i32 0, i32 1
  %30 = load i64, ptr %29, align 8, !tbaa !14
  %31 = icmp eq i64 %30, 0
  br i1 %31, label %32, label %33

32:                                               ; preds = %28
  store i64 0, ptr %5, align 8
  br label %69

33:                                               ; preds = %28, %25, %21
  store i64 -1, ptr %5, align 8
  br label %69

34:                                               ; preds = %16
  call void @llvm.lifetime.start.p0(i64 8, ptr %9) #13
  %35 = getelementptr inbounds nuw %"class.google::protobuf::StringPiece", ptr %12, i32 0, i32 0
  %36 = load ptr, ptr %35, align 8, !tbaa !10
  %37 = load i64, ptr %8, align 8, !tbaa !15
  %38 = getelementptr inbounds nuw i8, ptr %36, i64 %37
  %39 = getelementptr inbounds nuw %"class.google::protobuf::StringPiece", ptr %12, i32 0, i32 0
  %40 = load ptr, ptr %39, align 8, !tbaa !10
  %41 = getelementptr inbounds nuw %"class.google::protobuf::StringPiece", ptr %12, i32 0, i32 1
  %42 = load i64, ptr %41, align 8, !tbaa !14
  %43 = getelementptr inbounds i8, ptr %40, i64 %42
  %44 = getelementptr inbounds nuw %"class.google::protobuf::StringPiece", ptr %6, i32 0, i32 0
  %45 = load ptr, ptr %44, align 8, !tbaa !10
  %46 = getelementptr inbounds nuw %"class.google::protobuf::StringPiece", ptr %6, i32 0, i32 0
  %47 = load ptr, ptr %46, align 8, !tbaa !10
  %48 = getelementptr inbounds nuw %"class.google::protobuf::StringPiece", ptr %6, i32 0, i32 1
  %49 = load i64, ptr %48, align 8, !tbaa !14
  %50 = getelementptr inbounds i8, ptr %47, i64 %49
  %51 = call noundef ptr @_ZSt6searchIPKcS1_ET_S2_S2_T0_S3_(ptr noundef %38, ptr noundef %43, ptr noundef %45, ptr noundef %50)
  store ptr %51, ptr %9, align 8, !tbaa !16
  %52 = load ptr, ptr %9, align 8, !tbaa !16
  %53 = getelementptr inbounds nuw %"class.google::protobuf::StringPiece", ptr %12, i32 0, i32 0
  %54 = load ptr, ptr %53, align 8, !tbaa !10
  %55 = getelementptr inbounds nuw %"class.google::protobuf::StringPiece", ptr %12, i32 0, i32 1
  %56 = load i64, ptr %55, align 8, !tbaa !14
  %57 = getelementptr inbounds i8, ptr %54, i64 %56
  %58 = icmp eq ptr %52, %57
  br i1 %58, label %59, label %60

59:                                               ; preds = %34
  br label %67

60:                                               ; preds = %34
  %61 = load ptr, ptr %9, align 8, !tbaa !16
  %62 = getelementptr inbounds nuw %"class.google::protobuf::StringPiece", ptr %12, i32 0, i32 0
  %63 = load ptr, ptr %62, align 8, !tbaa !10
  %64 = ptrtoint ptr %61 to i64
  %65 = ptrtoint ptr %63 to i64
  %66 = sub i64 %64, %65
  br label %67

67:                                               ; preds = %60, %59
  %68 = phi i64 [ -1, %59 ], [ %66, %60 ]
  store i64 %68, ptr %5, align 8
  call void @llvm.lifetime.end.p0(i64 8, ptr %9) #13
  br label %69

69:                                               ; preds = %67, %33, %32
  %70 = load i64, ptr %5, align 8
  ret i64 %70
}