; Function Attrs: mustprogress uwtable
define noundef i64 @_ZNK6google8protobuf11StringPiece4findES1_m(ptr noundef nonnull readonly align 8 captures(none) dereferenceable(16) %0, ptr %1, i64 %2, i64 noundef %3) local_unnamed_addr #0 align 2 {
  %5 = getelementptr inbounds nuw i8, ptr %0, i64 8
  %6 = load i64, ptr %5, align 8, !tbaa !10
  %7 = icmp slt i64 %6, 1
  %8 = icmp ugt i64 %3, %6
  %or.cond15 = or i1 %7, %8
  br i1 %or.cond15, label %9, label %12

9:                                                ; preds = %4
  %10 = or i64 %6, %3
  %or.cond = icmp ne i64 %10, 0
  %11 = icmp ne i64 %2, 0
  %or.cond4.not = select i1 %or.cond, i1 true, i1 %11
  %. = sext i1 %or.cond4.not to i64
  br label %26

12:                                               ; preds = %4
  %13 = load ptr, ptr %0, align 8, !tbaa !3
  %14 = getelementptr inbounds nuw i8, ptr %13, i64 %3
  %15 = getelementptr inbounds nuw i8, ptr %13, i64 %6
  %16 = getelementptr inbounds i8, ptr %1, i64 %2
  %17 = tail call noundef ptr @_ZSt8__searchIPKcS1_N9__gnu_cxx5__ops19_Iter_equal_to_iterEET_S5_S5_T0_S6_T1_(ptr noundef %14, ptr noundef nonnull %15, ptr noundef %1, ptr noundef %16)
  %18 = load ptr, ptr %0, align 8, !tbaa !3
  %19 = load i64, ptr %5, align 8, !tbaa !10
  %20 = getelementptr inbounds i8, ptr %18, i64 %19
  %21 = icmp eq ptr %17, %20
  %22 = ptrtoint ptr %17 to i64
  %23 = ptrtoint ptr %18 to i64
  %24 = sub i64 %22, %23
  %25 = select i1 %21, i64 -1, i64 %24
  br label %26

26:                                               ; preds = %9, %12
  %.0 = phi i64 [ %25, %12 ], [ %., %9 ]
  ret i64 %.0
}